; Function Attrs: nounwind uwtable
define dso_local range(i32 -1, 2) i32 @xidLogicalComparator(ptr noundef readonly captures(none) %0, ptr noundef readonly captures(none) %1) local_unnamed_addr #0 {
  %3 = load i32, ptr %0, align 4
  %4 = load i32, ptr %1, align 4
  %5 = tail call zeroext i1 @TransactionIdPrecedes(i32 noundef %3, i32 noundef %4) #7
  br i1 %5, label %8, label %6

6:                                                ; preds = %2
  %7 = tail call zeroext i1 @TransactionIdPrecedes(i32 noundef %4, i32 noundef %3) #7
  %. = zext i1 %7 to i32
  br label %8

8:                                                ; preds = %6, %2
  %.0 = phi i32 [ -1, %2 ], [ %., %6 ]
  ret i32 %.0
}